target datalayout = "e-m:e-p270:32:32-p271:32:32-p272:64:64-i64:64-i128:128-f80:128-n8:16:32:64-S128"
target triple = "x86_64-pc-linux-gnu"

@hf_gryphon_reserved = internal global i32 0, align 4
@hf_gryphon_list_num_programs = internal global i32 0, align 4
@hf_gryphon_list_num_remain_programs = internal global i32 0, align 4
@hf_gryphon_list_name = internal global i32 0, align 4
@hf_gryphon_list_description = internal global i32 0, align 4
@ett_gryphon_pgm_list = internal global i32 0, align 4
@.str.1109 = private unnamed_addr constant [11 x i8] c"Program %u\00", align 1

; Function Attrs: null_pointer_is_valid sspstrong uwtable
define internal i32 @resp_list(ptr noundef %0, i32 noundef %1, ptr noundef %2) #0 {
  %4 = alloca ptr, align 8
  %5 = alloca i32, align 4
  %6 = alloca ptr, align 8
  %7 = alloca ptr, align 8
  %8 = alloca i32, align 4
  %9 = alloca i32, align 4
  store ptr %0, ptr %4, align 8
  store i32 %1, ptr %5, align 4
  store ptr %2, ptr %6, align 8
  call void @llvm.lifetime.start.p0(i64 8, ptr %7) #7
  call void @llvm.lifetime.start.p0(i64 4, ptr %8) #7
  call void @llvm.lifetime.start.p0(i64 4, ptr %9) #7
  %10 = load ptr, ptr %6, align 8
  %11 = load i32, ptr @hf_gryphon_list_num_programs, align 4
  %12 = load ptr, ptr %4, align 8
  %13 = load i32, ptr %5, align 4
  %14 = call ptr @proto_tree_add_item_ret_uint(ptr noundef %10, i32 noundef %11, ptr noundef %12, i32 noundef %13, i32 noundef 1, i32 noundef 0, ptr noundef %9)
  %15 = load ptr, ptr %6, align 8
  %16 = load i32, ptr @hf_gryphon_reserved, align 4
  %17 = load ptr, ptr %4, align 8
  %18 = load i32, ptr %5, align 4
  %19 = add i32 %18, 1
  %20 = call ptr @proto_tree_add_item(ptr noundef %15, i32 noundef %16, ptr noundef %17, i32 noundef %19, i32 noundef 1, i32 noundef 0)
  %21 = load i32, ptr %5, align 4
  %22 = add i32 %21, 2
  store i32 %22, ptr %5, align 4
  %23 = load ptr, ptr %6, align 8
  %24 = load i32, ptr @hf_gryphon_list_num_remain_programs, align 4
  %25 = load ptr, ptr %4, align 8
  %26 = load i32, ptr %5, align 4
  %27 = call ptr @proto_tree_add_item(ptr noundef %23, i32 noundef %24, ptr noundef %25, i32 noundef %26, i32 noundef 2, i32 noundef 0)
  %28 = load i32, ptr %5, align 4
  %29 = add i32 %28, 2
  store i32 %29, ptr %5, align 4
  store i32 1, ptr %8, align 4
  br label %30

30:                                               ; preds = %55, %3
  %31 = load i32, ptr %8, align 4
  %32 = load i32, ptr %9, align 4
  %33 = icmp ule i32 %31, %32
  br i1 %33, label %34, label %58

34:                                               ; preds = %30
  %35 = load ptr, ptr %6, align 8
  %36 = load ptr, ptr %4, align 8
  %37 = load i32, ptr %5, align 4
  %38 = load i32, ptr @ett_gryphon_pgm_list, align 4
  %39 = load i32, ptr %8, align 4
  %40 = call ptr (ptr, ptr, i32, i32, i32, ptr, ptr, ...) @proto_tree_add_subtree_format(ptr noundef %35, ptr noundef %36, i32 noundef %37, i32 noundef 112, i32 noundef %38, ptr noundef null, ptr noundef @.str.1109, i32 noundef %39)
  store ptr %40, ptr %7, align 8
  %41 = load ptr, ptr %7, align 8
  %42 = load i32, ptr @hf_gryphon_list_name, align 4
  %43 = load ptr, ptr %4, align 8
  %44 = load i32, ptr %5, align 4
  %45 = call ptr @proto_tree_add_item(ptr noundef %41, i32 noundef %42, ptr noundef %43, i32 noundef %44, i32 noundef 32, i32 noundef 0)
  %46 = load i32, ptr %5, align 4
  %47 = add i32 %46, 32
  store i32 %47, ptr %5, align 4
  %48 = load ptr, ptr %7, align 8
  %49 = load i32, ptr @hf_gryphon_list_description, align 4
  %50 = load ptr, ptr %4, align 8
  %51 = load i32, ptr %5, align 4
  %52 = call ptr @proto_tree_add_item(ptr noundef %48, i32 noundef %49, ptr noundef %50, i32 noundef %51, i32 noundef 80, i32 noundef 0)
  %53 = load i32, ptr %5, align 4
  %54 = add i32 %53, 80
  store i32 %54, ptr %5, align 4
  br label %55

55:                                               ; preds = %34
  %56 = load i32, ptr %8, align 4
  %57 = add i32 %56, 1
  store i32 %57, ptr %8, align 4
  br label %30, !llvm.loop !43

58:                                               ; preds = %30
  %59 = load i32, ptr %5, align 4
  call void @llvm.lifetime.end.p0(i64 4, ptr %9) #7
  call void @llvm.lifetime.end.p0(i64 4, ptr %8) #7
  call void @llvm.lifetime.end.p0(i64 8, ptr %7) #7
  ret i32 %59
}