; Function Attrs: null_pointer_is_valid sspstrong uwtable
define internal fastcc noundef i32 @resp_list(ptr noundef %0, ptr noundef %1) unnamed_addr #0 {
  %3 = alloca i32, align 4
  call void @llvm.lifetime.start.p0(i64 4, ptr nonnull %3) #5
  %4 = load i32, ptr @hf_gryphon_list_num_programs, align 4
  %5 = call ptr @proto_tree_add_item_ret_uint(ptr noundef %1, i32 noundef %4, ptr noundef %0, i32 noundef 16, i32 noundef 1, i32 noundef 0, ptr noundef nonnull %3)
  %6 = load i32, ptr @hf_gryphon_reserved, align 4
  %7 = call ptr @proto_tree_add_item(ptr noundef %1, i32 noundef %6, ptr noundef %0, i32 noundef 17, i32 noundef 1, i32 noundef 0)
  %8 = load i32, ptr @hf_gryphon_list_num_remain_programs, align 4
  %9 = call ptr @proto_tree_add_item(ptr noundef %1, i32 noundef %8, ptr noundef %0, i32 noundef 18, i32 noundef 2, i32 noundef 0)
  %10 = load i32, ptr %3, align 4
  %.not26 = icmp eq i32 %10, 0
  br i1 %.not26, label %._crit_edge, label %.lr.ph

.lr.ph:                                           ; preds = %2, %.lr.ph
  %.028 = phi i32 [ %19, %.lr.ph ], [ 1, %2 ]
  %.02527 = phi i32 [ %18, %.lr.ph ], [ 20, %2 ]
  %11 = load i32, ptr @ett_gryphon_pgm_list, align 4
  %12 = call ptr (ptr, ptr, i32, i32, i32, ptr, ptr, ...) @proto_tree_add_subtree_format(ptr noundef %1, ptr noundef %0, i32 noundef %.02527, i32 noundef 112, i32 noundef %11, ptr noundef null, ptr noundef nonnull @.str.1109, i32 noundef %.028)
  %13 = load i32, ptr @hf_gryphon_list_name, align 4
  %14 = call ptr @proto_tree_add_item(ptr noundef %12, i32 noundef %13, ptr noundef %0, i32 noundef %.02527, i32 noundef 32, i32 noundef 0)
  %15 = add i32 %.02527, 32
  %16 = load i32, ptr @hf_gryphon_list_description, align 4
  %17 = call ptr @proto_tree_add_item(ptr noundef %12, i32 noundef %16, ptr noundef %0, i32 noundef %15, i32 noundef 80, i32 noundef 0)
  %18 = add i32 %.02527, 112
  %19 = add i32 %.028, 1
  %20 = load i32, ptr %3, align 4
  %.not = icmp ugt i32 %19, %20
  br i1 %.not, label %._crit_edge, label %.lr.ph, !llvm.loop !43

._crit_edge:                                      ; preds = %.lr.ph, %2
  %.025.lcssa = phi i32 [ 20, %2 ], [ %18, %.lr.ph ]
  call void @llvm.lifetime.end.p0(i64 4, ptr nonnull %3) #5
  ret i32 %.025.lcssa
}